target datalayout = "e-m:e-p270:32:32-p271:32:32-p272:64:64-i64:64-i128:128-f80:128-n8:16:32:64-S128"
target triple = "x86_64-pc-linux-gnu"

%struct.Nwk_Obj_t_ = type { ptr, ptr, ptr, %union.anon, i32, i32, i32, i32, float, float, float, i32, i32, i32, ptr }
%union.anon = type { ptr }
%struct.Nwk_Man_t_ = type { ptr, ptr, ptr, ptr, ptr, [5 x i32], i32, ptr, ptr, ptr, ptr, ptr, i32, i32, i32, i32, i32 }

; Function Attrs: inlinehint nounwind uwtable
define internal i32 @Nwk_ObjSetPred(ptr noundef %0, ptr noundef %1) #2 {
  %3 = alloca ptr, align 8
  %4 = alloca ptr, align 8
  store ptr %0, ptr %3, align 8, !tbaa !3
  store ptr %1, ptr %4, align 8, !tbaa !3
  %5 = load ptr, ptr %4, align 8, !tbaa !3
  %6 = load ptr, ptr %3, align 8, !tbaa !3
  %7 = getelementptr inbounds nuw %struct.Nwk_Obj_t_, ptr %6, i32 0, i32 2
  store ptr %5, ptr %7, align 8, !tbaa !32
  ret i32 1
}

; Function Attrs: inlinehint nounwind uwtable
define internal void @Nwk_ObjSetFlow(ptr noundef %0) #2 {
  %2 = alloca ptr, align 8
  store ptr %0, ptr %2, align 8, !tbaa !3
  %3 = load ptr, ptr %2, align 8, !tbaa !3
  %4 = getelementptr inbounds nuw %struct.Nwk_Obj_t_, ptr %3, i32 0, i32 4
  %5 = load i32, ptr %4, align 8
  %6 = and i32 %5, -33
  %7 = or i32 %6, 32
  store i32 %7, ptr %4, align 8
  ret void
}

; Function Attrs: inlinehint nounwind uwtable
define internal i32 @Nwk_ObjIsSink(ptr noundef %0) #2 {
  %2 = alloca ptr, align 8
  store ptr %0, ptr %2, align 8, !tbaa !3
  %3 = load ptr, ptr %2, align 8, !tbaa !3
  %4 = getelementptr inbounds nuw %struct.Nwk_Obj_t_, ptr %3, i32 0, i32 4
  %5 = load i32, ptr %4, align 8
  %6 = lshr i32 %5, 4
  %7 = and i32 %6, 1
  ret i32 %7
}

; Function Attrs: inlinehint nounwind uwtable
define internal i32 @Nwk_ObjHasFlow(ptr noundef %0) #2 {
  %2 = alloca ptr, align 8
  store ptr %0, ptr %2, align 8, !tbaa !3
  %3 = load ptr, ptr %2, align 8, !tbaa !3
  %4 = getelementptr inbounds nuw %struct.Nwk_Obj_t_, ptr %3, i32 0, i32 4
  %5 = load i32, ptr %4, align 8
  %6 = lshr i32 %5, 5
  %7 = and i32 %6, 1
  ret i32 %7
}

; Function Attrs: inlinehint nounwind uwtable
define internal void @Nwk_ObjSetTravIdCurrent(ptr noundef %0) #2 {
  %2 = alloca ptr, align 8
  store ptr %0, ptr %2, align 8, !tbaa !3
  %3 = load ptr, ptr %2, align 8, !tbaa !3
  %4 = getelementptr inbounds nuw %struct.Nwk_Obj_t_, ptr %3, i32 0, i32 0
  %5 = load ptr, ptr %4, align 8, !tbaa !23
  %6 = getelementptr inbounds nuw %struct.Nwk_Man_t_, ptr %5, i32 0, i32 12
  %7 = load i32, ptr %6, align 8, !tbaa !24
  %8 = load ptr, ptr %2, align 8, !tbaa !3
  %9 = getelementptr inbounds nuw %struct.Nwk_Obj_t_, ptr %8, i32 0, i32 6
  store i32 %7, ptr %9, align 8, !tbaa !22
  ret void
}

; Function Attrs: inlinehint nounwind uwtable
define internal i32 @Nwk_ObjIsTravIdCurrent(ptr noundef %0) #2 {
  %2 = alloca ptr, align 8
  store ptr %0, ptr %2, align 8, !tbaa !3
  %3 = load ptr, ptr %2, align 8, !tbaa !3
  %4 = getelementptr inbounds nuw %struct.Nwk_Obj_t_, ptr %3, i32 0, i32 6
  %5 = load i32, ptr %4, align 8, !tbaa !22
  %6 = load ptr, ptr %2, align 8, !tbaa !3
  %7 = getelementptr inbounds nuw %struct.Nwk_Obj_t_, ptr %6, i32 0, i32 0
  %8 = load ptr, ptr %7, align 8, !tbaa !23
  %9 = getelementptr inbounds nuw %struct.Nwk_Man_t_, ptr %8, i32 0, i32 12
  %10 = load i32, ptr %9, align 8, !tbaa !24
  %11 = icmp eq i32 %5, %10
  %12 = zext i1 %11 to i32
  ret i32 %12
}

; Function Attrs: nounwind uwtable
define i32 @Nwk_ManPushForwardFast_rec(ptr noundef %0, ptr noundef %1) #0 {
  %3 = alloca i32, align 4
  %4 = alloca ptr, align 8
  %5 = alloca ptr, align 8
  %6 = alloca ptr, align 8
  %7 = alloca i32, align 4
  %8 = alloca i32, align 4
  store ptr %0, ptr %4, align 8, !tbaa !3
  store ptr %1, ptr %5, align 8, !tbaa !3
  call void @llvm.lifetime.start.p0(i64 8, ptr %6) #9
  call void @llvm.lifetime.start.p0(i64 4, ptr %7) #9
  %9 = load ptr, ptr %4, align 8, !tbaa !3
  %10 = call i32 @Nwk_ObjIsTravIdCurrent(ptr noundef %9)
  %11 = icmp ne i32 %10, 0
  br i1 %11, label %12, label %13

12:                                               ; preds = %2
  store i32 0, ptr %3, align 4
  store i32 1, ptr %8, align 4
  br label %65

13:                                               ; preds = %2
  %14 = load ptr, ptr %4, align 8, !tbaa !3
  call void @Nwk_ObjSetTravIdCurrent(ptr noundef %14)
  %15 = load ptr, ptr %4, align 8, !tbaa !3
  %16 = call i32 @Nwk_ObjHasFlow(ptr noundef %15)
  %17 = icmp ne i32 %16, 0
  br i1 %17, label %18, label %19

18:                                               ; preds = %13
  store i32 0, ptr %3, align 4
  store i32 1, ptr %8, align 4
  br label %65

19:                                               ; preds = %13
  %20 = load ptr, ptr %4, align 8, !tbaa !3
  %21 = call i32 @Nwk_ObjIsSink(ptr noundef %20)
  %22 = icmp ne i32 %21, 0
  br i1 %22, label %23, label %28

23:                                               ; preds = %19
  %24 = load ptr, ptr %4, align 8, !tbaa !3
  call void @Nwk_ObjSetFlow(ptr noundef %24)
  %25 = load ptr, ptr %4, align 8, !tbaa !3
  %26 = load ptr, ptr %5, align 8, !tbaa !3
  %27 = call i32 @Nwk_ObjSetPred(ptr noundef %25, ptr noundef %26)
  store i32 %27, ptr %3, align 4
  store i32 1, ptr %8, align 4
  br label %65

28:                                               ; preds = %19
  store i32 0, ptr %7, align 4, !tbaa !8
  br label %29

29:                                               ; preds = %61, %28
  %30 = load i32, ptr %7, align 4, !tbaa !8
  %31 = load ptr, ptr %4, align 8, !tbaa !3
  %32 = getelementptr inbounds nuw %struct.Nwk_Obj_t_, ptr %31, i32 0, i32 12
  %33 = load i32, ptr %32, align 8, !tbaa !19
  %34 = icmp slt i32 %30, %33
  br i1 %34, label %35, label %48

35:                                               ; preds = %29
  %36 = load ptr, ptr %4, align 8, !tbaa !3
  %37 = getelementptr inbounds nuw %struct.Nwk_Obj_t_, ptr %36, i32 0, i32 14
  %38 = load ptr, ptr %37, align 8, !tbaa !16
  %39 = load ptr, ptr %4, align 8, !tbaa !3
  %40 = getelementptr inbounds nuw %struct.Nwk_Obj_t_, ptr %39, i32 0, i32 11
  %41 = load i32, ptr %40, align 4, !tbaa !10
  %42 = load i32, ptr %7, align 4, !tbaa !8
  %43 = add nsw i32 %41, %42
  %44 = sext i32 %43 to i64
  %45 = getelementptr inbounds ptr, ptr %38, i64 %44
  %46 = load ptr, ptr %45, align 8, !tbaa !3
  store ptr %46, ptr %6, align 8, !tbaa !3
  %47 = icmp ne ptr %46, null
  br label %48

48:                                               ; preds = %35, %29
  %49 = phi i1 [ false, %29 ], [ %47, %35 ]
  br i1 %49, label %50, label %64

50:                                               ; preds = %48
  %51 = load ptr, ptr %6, align 8, !tbaa !3
  %52 = load ptr, ptr %4, align 8, !tbaa !3
  %53 = call i32 @Nwk_ManPushForwardFast_rec(ptr noundef %51, ptr noundef %52)
  %54 = icmp ne i32 %53, 0
  br i1 %54, label %55, label %60

55:                                               ; preds = %50
  %56 = load ptr, ptr %4, align 8, !tbaa !3
  call void @Nwk_ObjSetFlow(ptr noundef %56)
  %57 = load ptr, ptr %4, align 8, !tbaa !3
  %58 = load ptr, ptr %5, align 8, !tbaa !3
  %59 = call i32 @Nwk_ObjSetPred(ptr noundef %57, ptr noundef %58)
  store i32 %59, ptr %3, align 4
  store i32 1, ptr %8, align 4
  br label %65

60:                                               ; preds = %50
  br label %61

61:                                               ; preds = %60
  %62 = load i32, ptr %7, align 4, !tbaa !8
  %63 = add nsw i32 %62, 1
  store i32 %63, ptr %7, align 4, !tbaa !8
  br label %29, !llvm.loop !21

64:                                               ; preds = %48
  store i32 0, ptr %3, align 4
  store i32 1, ptr %8, align 4
  br label %65

65:                                               ; preds = %64, %55, %23, %18, %12
  call void @llvm.lifetime.end.p0(i64 4, ptr %7) #9
  call void @llvm.lifetime.end.p0(i64 8, ptr %6) #9
  %66 = load i32, ptr %3, align 4
  ret i32 %66
}