; Function Attrs: nofree nosync nounwind memory(readwrite, inaccessiblemem: none) uwtable
define range(i32 0, 2) i32 @Nwk_ManPushForwardFast_rec(ptr noundef %0, ptr noundef %1) local_unnamed_addr #0 {
  %.val = load ptr, ptr %0, align 8, !tbaa !20
  %3 = getelementptr i8, ptr %0, i64 40
  %.val24 = load i32, ptr %3, align 8, !tbaa !21
  %4 = getelementptr i8, ptr %.val, i64 104
  %.val.val = load i32, ptr %4, align 8, !tbaa !22
  %.not = icmp eq i32 %.val24, %.val.val
  br i1 %.not, label %.critedge, label %5

5:                                                ; preds = %2
  store i32 %.val.val, ptr %3, align 8, !tbaa !21
  %6 = getelementptr i8, ptr %0, i64 32
  %.val25 = load i32, ptr %6, align 8
  %7 = and i32 %.val25, 32
  %.not20 = icmp eq i32 %7, 0
  br i1 %.not20, label %8, label %.critedge

8:                                                ; preds = %5
  %9 = and i32 %.val25, 16
  %.not21 = icmp eq i32 %9, 0
  br i1 %.not21, label %.preheader, label %.critedge.sink.split

.preheader:                                       ; preds = %8
  %10 = getelementptr inbounds nuw i8, ptr %0, i64 64
  %11 = load i32, ptr %10, align 8, !tbaa !18
  %12 = icmp sgt i32 %11, 0
  br i1 %12, label %.lr.ph, label %.critedge

.lr.ph:                                           ; preds = %.preheader
  %13 = getelementptr inbounds nuw i8, ptr %0, i64 72
  %14 = getelementptr inbounds nuw i8, ptr %0, i64 60
  br label %19

15:                                               ; preds = %26
  %16 = add nuw nsw i32 %.027, 1
  %17 = load i32, ptr %10, align 8, !tbaa !18
  %18 = icmp slt i32 %16, %17
  br i1 %18, label %19, label %.critedge, !llvm.loop !30

19:                                               ; preds = %.lr.ph, %15
  %.027 = phi i32 [ 0, %.lr.ph ], [ %16, %15 ]
  %20 = load ptr, ptr %13, align 8, !tbaa !13
  %21 = load i32, ptr %14, align 4, !tbaa !3
  %22 = add nsw i32 %21, %.027
  %23 = sext i32 %22 to i64
  %24 = getelementptr inbounds ptr, ptr %20, i64 %23
  %25 = load ptr, ptr %24, align 8, !tbaa !14
  %.not22 = icmp eq ptr %25, null
  br i1 %.not22, label %.critedge, label %26

26:                                               ; preds = %19
  %27 = tail call i32 @Nwk_ManPushForwardFast_rec(ptr noundef nonnull %25, ptr noundef nonnull %0)
  %.not23 = icmp eq i32 %27, 0
  br i1 %.not23, label %15, label %28

28:                                               ; preds = %26
  %29 = load i32, ptr %6, align 8
  br label %.critedge.sink.split

.critedge.sink.split:                             ; preds = %8, %28
  %.sink29 = phi i32 [ %29, %28 ], [ %.val25, %8 ]
  %30 = or i32 %.sink29, 32
  store i32 %30, ptr %6, align 8
  %31 = getelementptr inbounds nuw i8, ptr %0, i64 16
  store ptr %1, ptr %31, align 8, !tbaa !31
  br label %.critedge

.critedge:                                        ; preds = %15, %19, %.critedge.sink.split, %.preheader, %5, %2
  %.018 = phi i32 [ 0, %2 ], [ 0, %5 ], [ 0, %.preheader ], [ 1, %.critedge.sink.split ], [ 0, %19 ], [ 0, %15 ]
  ret i32 %.018
}